target datalayout = "e-m:e-p270:32:32-p271:32:32-p272:64:64-i64:64-i128:128-f80:128-n8:16:32:64-S128"
target triple = "x86_64-pc-linux-gnu"

; Function Attrs: nounwind uwtable
define internal float @compute_ptp_flt(ptr noundef %0, float noundef %1, float noundef %2, i32 noundef %3, ptr noundef %4, ptr noundef %5) #2 {
  %7 = alloca ptr, align 8
  %8 = alloca float, align 4
  %9 = alloca float, align 4
  %10 = alloca i32, align 4
  %11 = alloca ptr, align 8
  %12 = alloca ptr, align 8
  %13 = alloca i32, align 4
  %14 = alloca i32, align 4
  %15 = alloca i32, align 4
  %16 = alloca float, align 4
  %17 = alloca float, align 4
  %18 = alloca float, align 4
  store ptr %0, ptr %7, align 8, !tbaa !95
  store float %1, ptr %8, align 4, !tbaa !97
  store float %2, ptr %9, align 4, !tbaa !97
  store i32 %3, ptr %10, align 4, !tbaa !35
  store ptr %4, ptr %11, align 8, !tbaa !99
  store ptr %5, ptr %12, align 8, !tbaa !99
  call void @llvm.lifetime.start.p0(i64 4, ptr %13) #7
  %19 = load ptr, ptr %11, align 8, !tbaa !99
  %20 = load i32, ptr %19, align 4, !tbaa !35
  store i32 %20, ptr %13, align 4, !tbaa !35
  call void @llvm.lifetime.start.p0(i64 4, ptr %14) #7
  %21 = load ptr, ptr %12, align 8, !tbaa !99
  %22 = load i32, ptr %21, align 4, !tbaa !35
  store i32 %22, ptr %14, align 4, !tbaa !35
  call void @llvm.lifetime.start.p0(i64 4, ptr %15) #7
  %23 = load i32, ptr %13, align 4, !tbaa !35
  %24 = load i32, ptr %14, align 4, !tbaa !35
  %25 = icmp eq i32 %23, %24
  br i1 %25, label %26, label %33

26:                                               ; preds = %6
  %27 = load ptr, ptr %7, align 8, !tbaa !95
  %28 = load i32, ptr %13, align 4, !tbaa !35
  %29 = sext i32 %28 to i64
  %30 = getelementptr inbounds float, ptr %27, i64 %29
  %31 = load float, ptr %30, align 4, !tbaa !97
  %32 = fcmp nsz oeq float %31, 0xC7EFFFFFE0000000
  br label %33

33:                                               ; preds = %26, %6
  %34 = phi i1 [ false, %6 ], [ %32, %26 ]
  %35 = zext i1 %34 to i32
  store i32 %35, ptr %15, align 4, !tbaa !35
  call void @llvm.lifetime.start.p0(i64 4, ptr %16) #7
  call void @llvm.lifetime.start.p0(i64 4, ptr %17) #7
  call void @llvm.lifetime.start.p0(i64 4, ptr %18) #7
  %36 = load i32, ptr %15, align 4, !tbaa !35
  %37 = icmp ne i32 %36, 0
  br i1 %37, label %68, label %38

38:                                               ; preds = %33
  %39 = load float, ptr %9, align 4, !tbaa !97
  %40 = load ptr, ptr %7, align 8, !tbaa !95
  %41 = load i32, ptr %13, align 4, !tbaa !35
  %42 = sext i32 %41 to i64
  %43 = getelementptr inbounds float, ptr %40, i64 %42
  %44 = load float, ptr %43, align 4, !tbaa !97
  %45 = fcmp nsz oeq float %39, %44
  br i1 %45, label %46, label %68

46:                                               ; preds = %38
  %47 = load ptr, ptr %7, align 8, !tbaa !95
  %48 = load i32, ptr %13, align 4, !tbaa !35
  %49 = sext i32 %48 to i64
  %50 = getelementptr inbounds float, ptr %47, i64 %49
  store float 0xC7EFFFFFE0000000, ptr %50, align 4, !tbaa !97
  %51 = load i32, ptr %14, align 4, !tbaa !35
  %52 = load i32, ptr %13, align 4, !tbaa !35
  %53 = icmp ne i32 %51, %52
  br i1 %53, label %54, label %63

54:                                               ; preds = %46
  %55 = load i32, ptr %13, align 4, !tbaa !35
  %56 = add nsw i32 %55, -1
  store i32 %56, ptr %13, align 4, !tbaa !35
  %57 = load i32, ptr %13, align 4, !tbaa !35
  %58 = icmp slt i32 %57, 0
  br i1 %58, label %59, label %62

59:                                               ; preds = %54
  %60 = load i32, ptr %10, align 4, !tbaa !35
  %61 = sub nsw i32 %60, 1
  store i32 %61, ptr %13, align 4, !tbaa !35
  br label %62

62:                                               ; preds = %59, %54
  br label %63

63:                                               ; preds = %62, %46
  %64 = load i32, ptr %13, align 4, !tbaa !35
  %65 = load i32, ptr %14, align 4, !tbaa !35
  %66 = icmp eq i32 %64, %65
  %67 = zext i1 %66 to i32
  store i32 %67, ptr %15, align 4, !tbaa !35
  br label %68

68:                                               ; preds = %63, %38, %33
  %69 = load i32, ptr %15, align 4, !tbaa !35
  %70 = icmp ne i32 %69, 0
  br i1 %70, label %100, label %71

71:                                               ; preds = %68
  %72 = load float, ptr %8, align 4, !tbaa !97
  %73 = load ptr, ptr %7, align 8, !tbaa !95
  %74 = load i32, ptr %13, align 4, !tbaa !35
  %75 = sext i32 %74 to i64
  %76 = getelementptr inbounds float, ptr %73, i64 %75
  %77 = load float, ptr %76, align 4, !tbaa !97
  %78 = fcmp nsz oge float %72, %77
  br i1 %78, label %79, label %100

79:                                               ; preds = %71
  br label %80

80:                                               ; preds = %98, %79
  br label %81

81:                                               ; preds = %80
  %82 = load ptr, ptr %7, align 8, !tbaa !95
  %83 = load i32, ptr %13, align 4, !tbaa !35
  %84 = sext i32 %83 to i64
  %85 = getelementptr inbounds float, ptr %82, i64 %84
  store float 0xC7EFFFFFE0000000, ptr %85, align 4, !tbaa !97
  %86 = load i32, ptr %14, align 4, !tbaa !35
  %87 = load i32, ptr %13, align 4, !tbaa !35
  %88 = icmp eq i32 %86, %87
  br i1 %88, label %89, label %90

89:                                               ; preds = %81
  store i32 1, ptr %15, align 4, !tbaa !35
  br label %99

90:                                               ; preds = %81
  %91 = load i32, ptr %13, align 4, !tbaa !35
  %92 = add nsw i32 %91, -1
  store i32 %92, ptr %13, align 4, !tbaa !35
  %93 = load i32, ptr %13, align 4, !tbaa !35
  %94 = icmp slt i32 %93, 0
  br i1 %94, label %95, label %98

95:                                               ; preds = %90
  %96 = load i32, ptr %10, align 4, !tbaa !35
  %97 = sub nsw i32 %96, 1
  store i32 %97, ptr %13, align 4, !tbaa !35
  br label %98

98:                                               ; preds = %95, %90
  br label %80

99:                                               ; preds = %89
  br label %100

100:                                              ; preds = %99, %71, %68
  br label %101

101:                                              ; preds = %130, %100
  %102 = load i32, ptr %15, align 4, !tbaa !35
  %103 = icmp ne i32 %102, 0
  br i1 %103, label %112, label %104

104:                                              ; preds = %101
  %105 = load float, ptr %8, align 4, !tbaa !97
  %106 = load ptr, ptr %7, align 8, !tbaa !95
  %107 = load i32, ptr %14, align 4, !tbaa !35
  %108 = sext i32 %107 to i64
  %109 = getelementptr inbounds float, ptr %106, i64 %108
  %110 = load float, ptr %109, align 4, !tbaa !97
  %111 = fcmp nsz oge float %105, %110
  br label %112

112:                                              ; preds = %104, %101
  %113 = phi i1 [ false, %101 ], [ %111, %104 ]
  br i1 %113, label %114, label %131

114:                                              ; preds = %112
  %115 = load ptr, ptr %7, align 8, !tbaa !95
  %116 = load i32, ptr %14, align 4, !tbaa !35
  %117 = sext i32 %116 to i64
  %118 = getelementptr inbounds float, ptr %115, i64 %117
  store float 0xC7EFFFFFE0000000, ptr %118, align 4, !tbaa !97
  %119 = load i32, ptr %14, align 4, !tbaa !35
  %120 = load i32, ptr %13, align 4, !tbaa !35
  %121 = icmp eq i32 %119, %120
  br i1 %121, label %122, label %123

122:                                              ; preds = %114
  store i32 1, ptr %15, align 4, !tbaa !35
  br label %131

123:                                              ; preds = %114
  %124 = load i32, ptr %14, align 4, !tbaa !35
  %125 = add nsw i32 %124, 1
  store i32 %125, ptr %14, align 4, !tbaa !35
  %126 = load i32, ptr %14, align 4, !tbaa !35
  %127 = load i32, ptr %10, align 4, !tbaa !35
  %128 = icmp sge i32 %126, %127
  br i1 %128, label %129, label %130

129:                                              ; preds = %123
  store i32 0, ptr %14, align 4, !tbaa !35
  br label %130

130:                                              ; preds = %129, %123
  br label %101, !llvm.loop !102

131:                                              ; preds = %122, %112
  %132 = load i32, ptr %15, align 4, !tbaa !35
  %133 = icmp ne i32 %132, 0
  br i1 %133, label %143, label %134

134:                                              ; preds = %131
  %135 = load i32, ptr %14, align 4, !tbaa !35
  %136 = add nsw i32 %135, -1
  store i32 %136, ptr %14, align 4, !tbaa !35
  %137 = load i32, ptr %14, align 4, !tbaa !35
  %138 = icmp slt i32 %137, 0
  br i1 %138, label %139, label %142

139:                                              ; preds = %134
  %140 = load i32, ptr %10, align 4, !tbaa !35
  %141 = sub nsw i32 %140, 1
  store i32 %141, ptr %14, align 4, !tbaa !35
  br label %142

142:                                              ; preds = %139, %134
  br label %143

143:                                              ; preds = %142, %131
  %144 = load float, ptr %8, align 4, !tbaa !97
  %145 = load ptr, ptr %7, align 8, !tbaa !95
  %146 = load i32, ptr %14, align 4, !tbaa !35
  %147 = sext i32 %146 to i64
  %148 = getelementptr inbounds float, ptr %145, i64 %147
  store float %144, ptr %148, align 4, !tbaa !97
  %149 = load ptr, ptr %7, align 8, !tbaa !95
  %150 = load i32, ptr %13, align 4, !tbaa !35
  %151 = sext i32 %150 to i64
  %152 = getelementptr inbounds float, ptr %149, i64 %151
  %153 = load float, ptr %152, align 4, !tbaa !97
  store float %153, ptr %17, align 4, !tbaa !97
  %154 = load float, ptr %8, align 4, !tbaa !97
  store float %154, ptr %18, align 4, !tbaa !97
  %155 = load float, ptr %18, align 4, !tbaa !97
  %156 = call nsz float @llvm.fabs.f32(float %155)
  %157 = load float, ptr %17, align 4, !tbaa !97
  %158 = load float, ptr %18, align 4, !tbaa !97
  %159 = fsub nsz float %157, %158
  %160 = call nsz float @llvm.fabs.f32(float %159)
  %161 = fadd nsz float %156, %160
  store float %161, ptr %16, align 4, !tbaa !97
  %162 = load i32, ptr %13, align 4, !tbaa !35
  %163 = load ptr, ptr %11, align 8, !tbaa !99
  store i32 %162, ptr %163, align 4, !tbaa !35
  %164 = load i32, ptr %14, align 4, !tbaa !35
  %165 = load ptr, ptr %12, align 8, !tbaa !99
  store i32 %164, ptr %165, align 4, !tbaa !35
  %166 = load float, ptr %16, align 4, !tbaa !97
  call void @llvm.lifetime.end.p0(i64 4, ptr %18) #7
  call void @llvm.lifetime.end.p0(i64 4, ptr %17) #7
  call void @llvm.lifetime.end.p0(i64 4, ptr %16) #7
  call void @llvm.lifetime.end.p0(i64 4, ptr %15) #7
  call void @llvm.lifetime.end.p0(i64 4, ptr %14) #7
  call void @llvm.lifetime.end.p0(i64 4, ptr %13) #7
  ret float %166
}